target datalayout = "e-m:e-p270:32:32-p271:32:32-p272:64:64-i64:64-i128:128-f80:128-n8:16:32:64-S128"
target triple = "x86_64-pc-linux-gnu"

%struct.SDL_Keyboard = type { ptr, i16, [512 x i8], [512 x i8], ptr, i32, i8, i64, i32 }
%union.SDL_Event = type { %struct.SDL_MouseWheelEvent, [72 x i8] }
%struct.SDL_MouseWheelEvent = type { i32, i32, i64, i32, i32, float, float, i32, float, float, i32, i32 }
%struct.SDL_Window = type { i32, ptr, ptr, i32, i32, i32, i32, i32, i32, i32, i32, float, float, i32, i32, i64, i64, float, i8, i8, i32, i32, %struct.SDL_Rect, %struct.SDL_Rect, %struct.SDL_Rect, i8, i8, i8, %struct.SDL_DisplayMode, %struct.SDL_DisplayMode, %struct.SDL_HDROutputProperties, float, ptr, i8, i8, i8, i8, i8, i8, i8, i8, i8, i32, i32, i32, i32, %struct.SDL_Rect, i32, i8, %struct.SDL_Rect, i32, %struct.SDL_Rect, ptr, ptr, i32, float, i32, i32, ptr, ptr, ptr, ptr, ptr, ptr, ptr, ptr, ptr }
%struct.SDL_DisplayMode = type { i32, i32, i32, i32, float, float, i32, i32, ptr }
%struct.SDL_HDROutputProperties = type { float, float }
%struct.SDL_Rect = type { i32, i32, i32, i32 }
%struct.SDL_CommonEvent = type { i32, i32, i64 }
%struct.SDL_TextEditingEvent = type { i32, i32, i64, i32, ptr, i32, i32 }

@SDL_keyboard = internal global %struct.SDL_Keyboard zeroinitializer, align 8

; Function Attrs: nounwind uwtable
define hidden void @SDL_SendEditingText(ptr noundef %0, i32 noundef %1, i32 noundef %2) #0 {
  %4 = alloca ptr, align 8
  %5 = alloca i32, align 4
  %6 = alloca i32, align 4
  %7 = alloca ptr, align 8
  %8 = alloca i32, align 4
  %9 = alloca %union.SDL_Event, align 8
  store ptr %0, ptr %4, align 8
  store i32 %1, ptr %5, align 4
  store i32 %2, ptr %6, align 4
  call void @llvm.lifetime.start.p0(i64 8, ptr %7) #6
  store ptr @SDL_keyboard, ptr %7, align 8
  %10 = load ptr, ptr %7, align 8
  %11 = getelementptr inbounds nuw %struct.SDL_Keyboard, ptr %10, i32 0, i32 0
  %12 = load ptr, ptr %11, align 8
  %13 = icmp ne ptr %12, null
  br i1 %13, label %14, label %19

14:                                               ; preds = %3
  %15 = load ptr, ptr %7, align 8
  %16 = getelementptr inbounds nuw %struct.SDL_Keyboard, ptr %15, i32 0, i32 0
  %17 = load ptr, ptr %16, align 8
  %18 = call zeroext i1 @SDL_TextInputActive_REAL(ptr noundef %17)
  br i1 %18, label %20, label %19

19:                                               ; preds = %14, %3
  store i32 1, ptr %8, align 4
  br label %59

20:                                               ; preds = %14
  %21 = load ptr, ptr %4, align 8
  %22 = icmp ne ptr %21, null
  br i1 %22, label %24, label %23

23:                                               ; preds = %20
  store i32 1, ptr %8, align 4
  br label %59

24:                                               ; preds = %20
  %25 = call zeroext i1 @SDL_EventEnabled_REAL(i32 noundef 770)
  br i1 %25, label %26, label %58

26:                                               ; preds = %24
  call void @llvm.lifetime.start.p0(i64 128, ptr %9) #6
  store i32 770, ptr %9, align 8
  %27 = getelementptr inbounds nuw %struct.SDL_CommonEvent, ptr %9, i32 0, i32 2
  store i64 0, ptr %27, align 8
  %28 = load ptr, ptr %7, align 8
  %29 = getelementptr inbounds nuw %struct.SDL_Keyboard, ptr %28, i32 0, i32 0
  %30 = load ptr, ptr %29, align 8
  %31 = icmp ne ptr %30, null
  br i1 %31, label %32, label %38

32:                                               ; preds = %26
  %33 = load ptr, ptr %7, align 8
  %34 = getelementptr inbounds nuw %struct.SDL_Keyboard, ptr %33, i32 0, i32 0
  %35 = load ptr, ptr %34, align 8
  %36 = getelementptr inbounds nuw %struct.SDL_Window, ptr %35, i32 0, i32 0
  %37 = load i32, ptr %36, align 8
  br label %39

38:                                               ; preds = %26
  br label %39

39:                                               ; preds = %38, %32
  %40 = phi i32 [ %37, %32 ], [ 0, %38 ]
  %41 = getelementptr inbounds nuw %struct.SDL_TextEditingEvent, ptr %9, i32 0, i32 3
  store i32 %40, ptr %41, align 8
  %42 = load i32, ptr %5, align 4
  %43 = getelementptr inbounds nuw %struct.SDL_TextEditingEvent, ptr %9, i32 0, i32 5
  store i32 %42, ptr %43, align 8
  %44 = load i32, ptr %6, align 4
  %45 = getelementptr inbounds nuw %struct.SDL_TextEditingEvent, ptr %9, i32 0, i32 6
  store i32 %44, ptr %45, align 4
  %46 = load ptr, ptr %4, align 8
  %47 = call ptr @SDL_CreateTemporaryString(ptr noundef %46)
  %48 = getelementptr inbounds nuw %struct.SDL_TextEditingEvent, ptr %9, i32 0, i32 4
  store ptr %47, ptr %48, align 8
  %49 = getelementptr inbounds nuw %struct.SDL_TextEditingEvent, ptr %9, i32 0, i32 4
  %50 = load ptr, ptr %49, align 8
  %51 = icmp ne ptr %50, null
  br i1 %51, label %53, label %52

52:                                               ; preds = %39
  store i32 1, ptr %8, align 4
  br label %55

53:                                               ; preds = %39
  %54 = call zeroext i1 @SDL_PushEvent_REAL(ptr noundef %9)
  store i32 0, ptr %8, align 4
  br label %55

55:                                               ; preds = %53, %52
  call void @llvm.lifetime.end.p0(i64 128, ptr %9) #6
  %56 = load i32, ptr %8, align 4
  switch i32 %56, label %59 [
    i32 0, label %57
  ]

57:                                               ; preds = %55
  br label %58

58:                                               ; preds = %57, %24
  store i32 0, ptr %8, align 4
  br label %59

59:                                               ; preds = %58, %55, %23, %19
  call void @llvm.lifetime.end.p0(i64 8, ptr %7) #6
  %60 = load i32, ptr %8, align 4
  switch i32 %60, label %62 [
    i32 0, label %61
    i32 1, label %61
  ]

61:                                               ; preds = %59, %59
  ret void

62:                                               ; preds = %59
  unreachable
}