; Function Attrs: nounwind uwtable
define hidden void @SDL_SendEditingText(ptr noundef %0, i32 noundef %1, i32 noundef %2) local_unnamed_addr #0 {
  %4 = alloca %union.SDL_Event, align 8
  %5 = load ptr, ptr @SDL_keyboard, align 8
  %.not = icmp eq ptr %5, null
  br i1 %.not, label %24, label %6

6:                                                ; preds = %3
  %7 = tail call zeroext i1 @SDL_TextInputActive_REAL(ptr noundef nonnull %5) #13
  %.not11 = icmp ne ptr %0, null
  %or.cond.not = and i1 %.not11, %7
  br i1 %or.cond.not, label %8, label %24

8:                                                ; preds = %6
  %9 = tail call zeroext i1 @SDL_EventEnabled_REAL(i32 noundef 770) #13
  br i1 %9, label %10, label %24

10:                                               ; preds = %8
  call void @llvm.lifetime.start.p0(i64 128, ptr nonnull %4) #13
  store i32 770, ptr %4, align 8
  %11 = getelementptr inbounds nuw i8, ptr %4, i64 8
  store i64 0, ptr %11, align 8
  %12 = load ptr, ptr @SDL_keyboard, align 8
  %.not12 = icmp eq ptr %12, null
  br i1 %.not12, label %15, label %13

13:                                               ; preds = %10
  %14 = load i32, ptr %12, align 8
  br label %15

15:                                               ; preds = %10, %13
  %16 = phi i32 [ %14, %13 ], [ 0, %10 ]
  %17 = getelementptr inbounds nuw i8, ptr %4, i64 16
  store i32 %16, ptr %17, align 8
  %18 = getelementptr inbounds nuw i8, ptr %4, i64 32
  store i32 %1, ptr %18, align 8
  %19 = getelementptr inbounds nuw i8, ptr %4, i64 36
  store i32 %2, ptr %19, align 4
  %20 = tail call ptr @SDL_CreateTemporaryString(ptr noundef nonnull %0) #13
  %21 = getelementptr inbounds nuw i8, ptr %4, i64 24
  store ptr %20, ptr %21, align 8
  %.not13.not = icmp eq ptr %20, null
  br i1 %.not13.not, label %.sink.split, label %22

22:                                               ; preds = %15
  %23 = call zeroext i1 @SDL_PushEvent_REAL(ptr noundef nonnull %4) #13
  br label %.sink.split

.sink.split:                                      ; preds = %15, %22
  call void @llvm.lifetime.end.p0(i64 128, ptr nonnull %4) #13
  br label %24

24:                                               ; preds = %.sink.split, %8, %3, %6
  ret void
}